target datalayout = "e-m:e-p270:32:32-p271:32:32-p272:64:64-i64:64-i128:128-f80:128-n8:16:32:64-S128"
target triple = "x86_64-pc-linux-gnu"

%struct.hashfile = type { i32, i32, i32, %union.git_hash_ctx, i64, ptr, ptr, i32, i32, i64, ptr, ptr, ptr, i32 }
%union.git_hash_ctx = type { %struct.SHA1_CTX }
%struct.SHA1_CTX = type { i64, [5 x i32], [64 x i8], i32, i32, i32, i32, i32, ptr, [5 x i32], [5 x i32], [80 x i32], [80 x i32], [80 x [5 x i32]] }
%struct.git_hash_algo = type { ptr, i32, i64, i64, i64, ptr, ptr, ptr, ptr, ptr, ptr, ptr, ptr, ptr }

; Function Attrs: nounwind uwtable
define dso_local void @hashflush(ptr noundef %0) #0 {
  %2 = alloca ptr, align 8
  %3 = alloca i32, align 4
  store ptr %0, ptr %2, align 8, !tbaa !4
  call void @llvm.lifetime.start.p0(i64 4, ptr %3) #10
  %4 = load ptr, ptr %2, align 8, !tbaa !4
  %5 = getelementptr inbounds nuw %struct.hashfile, ptr %4, i32 0, i32 2
  %6 = load i32, ptr %5, align 8, !tbaa !9
  store i32 %6, ptr %3, align 4, !tbaa !16
  %7 = load i32, ptr %3, align 4, !tbaa !16
  %8 = icmp ne i32 %7, 0
  br i1 %8, label %9, label %35

9:                                                ; preds = %1
  %10 = load ptr, ptr %2, align 8, !tbaa !4
  %11 = getelementptr inbounds nuw %struct.hashfile, ptr %10, i32 0, i32 13
  %12 = load i32, ptr %11, align 8, !tbaa !17
  %13 = icmp ne i32 %12, 0
  br i1 %13, label %27, label %14

14:                                               ; preds = %9
  %15 = load ptr, ptr %2, align 8, !tbaa !4
  %16 = getelementptr inbounds nuw %struct.hashfile, ptr %15, i32 0, i32 12
  %17 = load ptr, ptr %16, align 8, !tbaa !18
  %18 = getelementptr inbounds nuw %struct.git_hash_algo, ptr %17, i32 0, i32 7
  %19 = load ptr, ptr %18, align 8, !tbaa !19
  %20 = load ptr, ptr %2, align 8, !tbaa !4
  %21 = getelementptr inbounds nuw %struct.hashfile, ptr %20, i32 0, i32 3
  %22 = load ptr, ptr %2, align 8, !tbaa !4
  %23 = getelementptr inbounds nuw %struct.hashfile, ptr %22, i32 0, i32 10
  %24 = load ptr, ptr %23, align 8, !tbaa !22
  %25 = load i32, ptr %3, align 4, !tbaa !16
  %26 = zext i32 %25 to i64
  call void %19(ptr noundef %21, ptr noundef %24, i64 noundef %26)
  br label %27

27:                                               ; preds = %14, %9
  %28 = load ptr, ptr %2, align 8, !tbaa !4
  %29 = load ptr, ptr %2, align 8, !tbaa !4
  %30 = getelementptr inbounds nuw %struct.hashfile, ptr %29, i32 0, i32 10
  %31 = load ptr, ptr %30, align 8, !tbaa !22
  %32 = load i32, ptr %3, align 4, !tbaa !16
  call void @flush(ptr noundef %28, ptr noundef %31, i32 noundef %32)
  %33 = load ptr, ptr %2, align 8, !tbaa !4
  %34 = getelementptr inbounds nuw %struct.hashfile, ptr %33, i32 0, i32 2
  store i32 0, ptr %34, align 8, !tbaa !9
  br label %35

35:                                               ; preds = %27, %1
  call void @llvm.lifetime.end.p0(i64 4, ptr %3) #10
  ret void
}

; Function Attrs: nounwind uwtable
define dso_local void @hashwrite(ptr noundef %0, ptr noundef %1, i32 noundef %2) #0 {
  %4 = alloca ptr, align 8
  %5 = alloca ptr, align 8
  %6 = alloca i32, align 4
  %7 = alloca i32, align 4
  %8 = alloca i32, align 4
  store ptr %0, ptr %4, align 8, !tbaa !4
  store ptr %1, ptr %5, align 8, !tbaa !23
  store i32 %2, ptr %6, align 4, !tbaa !16
  br label %9

9:                                                ; preds = %98, %3
  %10 = load i32, ptr %6, align 4, !tbaa !16
  %11 = icmp ne i32 %10, 0
  br i1 %11, label %12, label %106

12:                                               ; preds = %9
  call void @llvm.lifetime.start.p0(i64 4, ptr %7) #10
  %13 = load ptr, ptr %4, align 8, !tbaa !4
  %14 = getelementptr inbounds nuw %struct.hashfile, ptr %13, i32 0, i32 9
  %15 = load i64, ptr %14, align 8, !tbaa !34
  %16 = load ptr, ptr %4, align 8, !tbaa !4
  %17 = getelementptr inbounds nuw %struct.hashfile, ptr %16, i32 0, i32 2
  %18 = load i32, ptr %17, align 8, !tbaa !9
  %19 = zext i32 %18 to i64
  %20 = sub i64 %15, %19
  %21 = trunc i64 %20 to i32
  store i32 %21, ptr %7, align 4, !tbaa !16
  call void @llvm.lifetime.start.p0(i64 4, ptr %8) #10
  %22 = load i32, ptr %6, align 4, !tbaa !16
  %23 = load i32, ptr %7, align 4, !tbaa !16
  %24 = icmp ugt i32 %22, %23
  br i1 %24, label %25, label %27

25:                                               ; preds = %12
  %26 = load i32, ptr %7, align 4, !tbaa !16
  br label %29

27:                                               ; preds = %12
  %28 = load i32, ptr %6, align 4, !tbaa !16
  br label %29

29:                                               ; preds = %27, %25
  %30 = phi i32 [ %26, %25 ], [ %28, %27 ]
  store i32 %30, ptr %8, align 4, !tbaa !16
  %31 = load ptr, ptr %4, align 8, !tbaa !4
  %32 = getelementptr inbounds nuw %struct.hashfile, ptr %31, i32 0, i32 7
  %33 = load i32, ptr %32, align 8, !tbaa !35
  %34 = icmp ne i32 %33, 0
  br i1 %34, label %35, label %46

35:                                               ; preds = %29
  %36 = load ptr, ptr %4, align 8, !tbaa !4
  %37 = getelementptr inbounds nuw %struct.hashfile, ptr %36, i32 0, i32 8
  %38 = load i32, ptr %37, align 4, !tbaa !36
  %39 = zext i32 %38 to i64
  %40 = load ptr, ptr %5, align 8, !tbaa !23
  %41 = load i32, ptr %8, align 4, !tbaa !16
  %42 = call i64 @crc32(i64 noundef %39, ptr noundef %40, i32 noundef %41)
  %43 = trunc i64 %42 to i32
  %44 = load ptr, ptr %4, align 8, !tbaa !4
  %45 = getelementptr inbounds nuw %struct.hashfile, ptr %44, i32 0, i32 8
  store i32 %43, ptr %45, align 4, !tbaa !36
  br label %46

46:                                               ; preds = %35, %29
  %47 = load i32, ptr %8, align 4, !tbaa !16
  %48 = zext i32 %47 to i64
  %49 = load ptr, ptr %4, align 8, !tbaa !4
  %50 = getelementptr inbounds nuw %struct.hashfile, ptr %49, i32 0, i32 9
  %51 = load i64, ptr %50, align 8, !tbaa !34
  %52 = icmp eq i64 %48, %51
  br i1 %52, label %53, label %73

53:                                               ; preds = %46
  %54 = load ptr, ptr %4, align 8, !tbaa !4
  %55 = getelementptr inbounds nuw %struct.hashfile, ptr %54, i32 0, i32 13
  %56 = load i32, ptr %55, align 8, !tbaa !17
  %57 = icmp ne i32 %56, 0
  br i1 %57, label %69, label %58

58:                                               ; preds = %53
  %59 = load ptr, ptr %4, align 8, !tbaa !4
  %60 = getelementptr inbounds nuw %struct.hashfile, ptr %59, i32 0, i32 12
  %61 = load ptr, ptr %60, align 8, !tbaa !18
  %62 = getelementptr inbounds nuw %struct.git_hash_algo, ptr %61, i32 0, i32 7
  %63 = load ptr, ptr %62, align 8, !tbaa !19
  %64 = load ptr, ptr %4, align 8, !tbaa !4
  %65 = getelementptr inbounds nuw %struct.hashfile, ptr %64, i32 0, i32 3
  %66 = load ptr, ptr %5, align 8, !tbaa !23
  %67 = load i32, ptr %8, align 4, !tbaa !16
  %68 = zext i32 %67 to i64
  call void %63(ptr noundef %65, ptr noundef %66, i64 noundef %68)
  br label %69

69:                                               ; preds = %58, %53
  %70 = load ptr, ptr %4, align 8, !tbaa !4
  %71 = load ptr, ptr %5, align 8, !tbaa !23
  %72 = load i32, ptr %8, align 4, !tbaa !16
  call void @flush(ptr noundef %70, ptr noundef %71, i32 noundef %72)
  br label %98

73:                                               ; preds = %46
  %74 = load ptr, ptr %4, align 8, !tbaa !4
  %75 = getelementptr inbounds nuw %struct.hashfile, ptr %74, i32 0, i32 10
  %76 = load ptr, ptr %75, align 8, !tbaa !22
  %77 = load ptr, ptr %4, align 8, !tbaa !4
  %78 = getelementptr inbounds nuw %struct.hashfile, ptr %77, i32 0, i32 2
  %79 = load i32, ptr %78, align 8, !tbaa !9
  %80 = zext i32 %79 to i64
  %81 = getelementptr inbounds nuw i8, ptr %76, i64 %80
  %82 = load ptr, ptr %5, align 8, !tbaa !23
  %83 = load i32, ptr %8, align 4, !tbaa !16
  %84 = zext i32 %83 to i64
  call void @llvm.memcpy.p0.p0.i64(ptr align 1 %81, ptr align 1 %82, i64 %84, i1 false)
  %85 = load i32, ptr %8, align 4, !tbaa !16
  %86 = load ptr, ptr %4, align 8, !tbaa !4
  %87 = getelementptr inbounds nuw %struct.hashfile, ptr %86, i32 0, i32 2
  %88 = load i32, ptr %87, align 8, !tbaa !9
  %89 = add i32 %88, %85
  store i32 %89, ptr %87, align 8, !tbaa !9
  %90 = load i32, ptr %8, align 4, !tbaa !16
  %91 = load i32, ptr %7, align 4, !tbaa !16
  %92 = sub i32 %91, %90
  store i32 %92, ptr %7, align 4, !tbaa !16
  %93 = load i32, ptr %7, align 4, !tbaa !16
  %94 = icmp ne i32 %93, 0
  br i1 %94, label %97, label %95

95:                                               ; preds = %73
  %96 = load ptr, ptr %4, align 8, !tbaa !4
  call void @hashflush(ptr noundef %96)
  br label %97

97:                                               ; preds = %95, %73
  br label %98

98:                                               ; preds = %97, %69
  %99 = load i32, ptr %8, align 4, !tbaa !16
  %100 = load i32, ptr %6, align 4, !tbaa !16
  %101 = sub i32 %100, %99
  store i32 %101, ptr %6, align 4, !tbaa !16
  %102 = load ptr, ptr %5, align 8, !tbaa !23
  %103 = load i32, ptr %8, align 4, !tbaa !16
  %104 = zext i32 %103 to i64
  %105 = getelementptr inbounds nuw i8, ptr %102, i64 %104
  store ptr %105, ptr %5, align 8, !tbaa !23
  call void @llvm.lifetime.end.p0(i64 4, ptr %8) #10
  call void @llvm.lifetime.end.p0(i64 4, ptr %7) #10
  br label %9, !llvm.loop !37

106:                                              ; preds = %9
  ret void
}