; Function Attrs: nounwind uwtable
define dso_local void @hashwrite(ptr noundef %0, ptr noundef %1, i32 noundef %2) local_unnamed_addr #0 {
  %.not40 = icmp eq i32 %2, 0
  br i1 %.not40, label %._crit_edge, label %.lr.ph

.lr.ph:                                           ; preds = %3
  %4 = getelementptr inbounds nuw i8, ptr %0, i64 2448
  %5 = getelementptr inbounds nuw i8, ptr %0, i64 8
  %6 = getelementptr inbounds nuw i8, ptr %0, i64 2440
  %7 = getelementptr inbounds nuw i8, ptr %0, i64 2444
  %8 = getelementptr inbounds nuw i8, ptr %0, i64 2456
  %9 = getelementptr inbounds nuw i8, ptr %0, i64 2480
  %10 = getelementptr inbounds nuw i8, ptr %0, i64 2472
  %11 = getelementptr inbounds nuw i8, ptr %0, i64 16
  br label %12

12:                                               ; preds = %.lr.ph, %hashflush.exit
  %.042 = phi ptr [ %1, %.lr.ph ], [ %53, %hashflush.exit ]
  %.03541 = phi i32 [ %2, %.lr.ph ], [ %52, %hashflush.exit ]
  %13 = load i64, ptr %4, align 8, !tbaa !29
  %14 = load i32, ptr %5, align 8, !tbaa !4
  %15 = trunc i64 %13 to i32
  %16 = sub i32 %15, %14
  %17 = tail call i32 @llvm.umin.i32(i32 %.03541, i32 %16)
  %18 = load i32, ptr %6, align 8, !tbaa !30
  %.not37 = icmp eq i32 %18, 0
  br i1 %.not37, label %24, label %19

19:                                               ; preds = %12
  %20 = load i32, ptr %7, align 4, !tbaa !31
  %21 = zext i32 %20 to i64
  %22 = tail call i64 @crc32(i64 noundef %21, ptr noundef %.042, i32 noundef %17) #13
  %23 = trunc i64 %22 to i32
  store i32 %23, ptr %7, align 4, !tbaa !31
  %.pre = load i64, ptr %4, align 8, !tbaa !29
  br label %24

24:                                               ; preds = %19, %12
  %25 = phi i64 [ %.pre, %19 ], [ %13, %12 ]
  %26 = zext i32 %17 to i64
  %27 = icmp eq i64 %25, %26
  br i1 %27, label %28, label %35

28:                                               ; preds = %24
  %29 = load i32, ptr %9, align 8, !tbaa !14
  %.not39 = icmp eq i32 %29, 0
  br i1 %.not39, label %30, label %34

30:                                               ; preds = %28
  %31 = load ptr, ptr %10, align 8, !tbaa !15
  %32 = getelementptr inbounds nuw i8, ptr %31, i64 56
  %33 = load ptr, ptr %32, align 8, !tbaa !16
  tail call void %33(ptr noundef nonnull %11, ptr noundef %.042, i64 noundef %25) #13
  br label %34

34:                                               ; preds = %30, %28
  tail call fastcc void @flush(ptr noundef nonnull %0, ptr noundef %.042, i32 noundef %17)
  br label %hashflush.exit

35:                                               ; preds = %24
  %36 = load ptr, ptr %8, align 8, !tbaa !19
  %37 = load i32, ptr %5, align 8, !tbaa !4
  %38 = zext i32 %37 to i64
  %39 = getelementptr inbounds nuw i8, ptr %36, i64 %38
  tail call void @llvm.memcpy.p0.p0.i64(ptr align 1 %39, ptr align 1 %.042, i64 %26, i1 false)
  %40 = load i32, ptr %5, align 8, !tbaa !4
  %41 = add i32 %40, %17
  store i32 %41, ptr %5, align 8, !tbaa !4
  %.not38.not = icmp ugt i32 %16, %.03541
  %.not.i = icmp eq i32 %41, 0
  %or.cond = select i1 %.not38.not, i1 true, i1 %.not.i
  br i1 %or.cond, label %hashflush.exit, label %42

42:                                               ; preds = %35
  %43 = load i32, ptr %9, align 8, !tbaa !14
  %.not10.i = icmp eq i32 %43, 0
  br i1 %.not10.i, label %44, label %50

44:                                               ; preds = %42
  %45 = load ptr, ptr %10, align 8, !tbaa !15
  %46 = getelementptr inbounds nuw i8, ptr %45, i64 56
  %47 = load ptr, ptr %46, align 8, !tbaa !16
  %48 = load ptr, ptr %8, align 8, !tbaa !19
  %49 = zext i32 %41 to i64
  tail call void %47(ptr noundef nonnull %11, ptr noundef %48, i64 noundef %49) #13
  br label %50

50:                                               ; preds = %44, %42
  %51 = load ptr, ptr %8, align 8, !tbaa !19
  tail call fastcc void @flush(ptr noundef nonnull %0, ptr noundef %51, i32 noundef %41)
  store i32 0, ptr %5, align 8, !tbaa !4
  br label %hashflush.exit

hashflush.exit:                                   ; preds = %50, %35, %34
  %52 = sub i32 %.03541, %17
  %53 = getelementptr inbounds nuw i8, ptr %.042, i64 %26
  %.not = icmp eq i32 %52, 0
  br i1 %.not, label %._crit_edge, label %12, !llvm.loop !32

._crit_edge:                                      ; preds = %hashflush.exit, %3
  ret void
}